; Function Attrs: mustprogress nounwind uwtable
define internal void @_ZN9grpc_core12_GLOBAL__N_120XdsClusterResolverLb6HelperD0Ev(ptr noundef nonnull align 8 dereferenceable(16) %this) unnamed_addr #7 align 2 personality ptr @__gxx_personality_v0 {
entry:
  store ptr getelementptr inbounds ({ [13 x ptr] }, ptr @_ZTVN9grpc_core19LoadBalancingPolicy42ParentOwningDelegatingChannelControlHelperINS_12_GLOBAL__N_120XdsClusterResolverLbEEE, i64 0, i32 0, i64 2), ptr %this, align 8
  %parent_.i.i = getelementptr inbounds i8, ptr %this, i64 8
  %0 = load ptr, ptr %parent_.i.i, align 8
  store ptr null, ptr %parent_.i.i, align 8
  %cmp.not.i.i.i = icmp eq ptr %0, null
  br i1 %cmp.not.i.i.i, label %_ZN9grpc_core12_GLOBAL__N_120XdsClusterResolverLb6HelperD2Ev.exit, label %if.then.i.i.i

if.then.i.i.i:                                    ; preds = %entry
  %refs_.i.i.i.i = getelementptr inbounds i8, ptr %0, i64 8
  %1 = atomicrmw sub ptr %refs_.i.i.i.i, i64 1 acq_rel, align 8
  %cmp.i.i.i.i.i = icmp eq i64 %1, 1
  br i1 %cmp.i.i.i.i.i, label %if.then.i.i.i.i, label %invoke.cont2.i.i

if.then.i.i.i.i:                                  ; preds = %if.then.i.i.i
  %vtable.i.i.i.i.i = load ptr, ptr %0, align 8
  %vfn.i.i.i.i.i = getelementptr inbounds i8, ptr %vtable.i.i.i.i.i, i64 16
  %2 = load ptr, ptr %vfn.i.i.i.i.i, align 8
  tail call void %2(ptr noundef nonnull align 8 dereferenceable(56) %0) #27
  br label %invoke.cont2.i.i

invoke.cont2.i.i:                                 ; preds = %if.then.i.i.i.i, %if.then.i.i.i
  %.pr.i.i = load ptr, ptr %parent_.i.i, align 8
  %cmp.not.i1.i.i = icmp eq ptr %.pr.i.i, null
  br i1 %cmp.not.i1.i.i, label %_ZN9grpc_core12_GLOBAL__N_120XdsClusterResolverLb6HelperD2Ev.exit, label %if.then.i2.i.i

if.then.i2.i.i:                                   ; preds = %invoke.cont2.i.i
  %refs_.i.i3.i.i = getelementptr inbounds i8, ptr %.pr.i.i, i64 8
  %3 = atomicrmw sub ptr %refs_.i.i3.i.i, i64 1 acq_rel, align 8
  %cmp.i.i.i4.i.i = icmp eq i64 %3, 1
  br i1 %cmp.i.i.i4.i.i, label %if.then.i.i5.i.i, label %_ZN9grpc_core12_GLOBAL__N_120XdsClusterResolverLb6HelperD2Ev.exit

if.then.i.i5.i.i:                                 ; preds = %if.then.i2.i.i
  %vtable.i.i.i6.i.i = load ptr, ptr %.pr.i.i, align 8
  %vfn.i.i.i7.i.i = getelementptr inbounds i8, ptr %vtable.i.i.i6.i.i, i64 16
  %4 = load ptr, ptr %vfn.i.i.i7.i.i, align 8
  tail call void %4(ptr noundef nonnull align 8 dereferenceable(56) %.pr.i.i) #27
  br label %_ZN9grpc_core12_GLOBAL__N_120XdsClusterResolverLb6HelperD2Ev.exit

_ZN9grpc_core12_GLOBAL__N_120XdsClusterResolverLb6HelperD2Ev.exit: ; preds = %entry, %invoke.cont2.i.i, %if.then.i2.i.i, %if.then.i.i5.i.i
  tail call void @_ZdlPv(ptr noundef nonnull %this) #29
  ret void
}